; Function Attrs: nounwind uwtable
define noundef nonnull ptr @WHIRLPOOL(ptr noundef %0, i64 noundef %1, ptr noundef writeonly captures(address_is_null, ret: address, provenance) %2) local_unnamed_addr #2 {
  %4 = alloca %struct.WHIRLPOOL_CTX, align 8
  call void @llvm.lifetime.start.p0(i64 168, ptr nonnull %4) #6
  call void @llvm.memset.p0.i64(ptr noundef nonnull align 8 dereferenceable(168) %4, i8 0, i64 168, i1 false)
  %5 = icmp ugt i64 %1, 1152921504606846975
  br i1 %5, label %.lr.ph.i, label %._crit_edge.i

.lr.ph.i:                                         ; preds = %3, %.lr.ph.i
  %.015.i = phi ptr [ %7, %.lr.ph.i ], [ %0, %3 ]
  %.01314.i = phi i64 [ %6, %.lr.ph.i ], [ %1, %3 ]
  call void @WHIRLPOOL_BitUpdate(ptr noundef nonnull %4, ptr noundef %.015.i, i64 noundef -9223372036854775808)
  %6 = add i64 %.01314.i, -1152921504606846976
  %7 = getelementptr inbounds nuw i8, ptr %.015.i, i64 1152921504606846976
  %8 = icmp ugt i64 %6, 1152921504606846975
  br i1 %8, label %.lr.ph.i, label %._crit_edge.i, !llvm.loop !3

._crit_edge.i:                                    ; preds = %.lr.ph.i, %3
  %.013.lcssa.i = phi i64 [ %1, %3 ], [ %6, %.lr.ph.i ]
  %.0.lcssa.i = phi ptr [ %0, %3 ], [ %7, %.lr.ph.i ]
  %.not.i = icmp eq i64 %.013.lcssa.i, 0
  br i1 %.not.i, label %WHIRLPOOL_Update.exit, label %9

9:                                                ; preds = %._crit_edge.i
  %10 = shl nuw nsw i64 %.013.lcssa.i, 3
  call void @WHIRLPOOL_BitUpdate(ptr noundef nonnull %4, ptr noundef %.0.lcssa.i, i64 noundef %10)
  br label %WHIRLPOOL_Update.exit

WHIRLPOOL_Update.exit:                            ; preds = %._crit_edge.i, %9
  %11 = getelementptr inbounds nuw i8, ptr %4, i64 128
  %12 = load i32, ptr %11, align 8, !tbaa !5
  %13 = lshr i32 %12, 3
  %14 = and i32 %12, 7
  %.not.i4 = icmp eq i32 %14, 0
  br i1 %.not.i4, label %23, label %15

15:                                               ; preds = %WHIRLPOOL_Update.exit
  %16 = lshr exact i32 128, %14
  %17 = getelementptr inbounds nuw i8, ptr %4, i64 64
  %18 = zext nneg i32 %13 to i64
  %19 = getelementptr inbounds nuw [64 x i8], ptr %17, i64 0, i64 %18
  %20 = load i8, ptr %19, align 1, !tbaa !14
  %21 = trunc nuw nsw i32 %16 to i8
  %22 = or i8 %20, %21
  store i8 %22, ptr %19, align 1, !tbaa !14
  br label %27

23:                                               ; preds = %WHIRLPOOL_Update.exit
  %24 = getelementptr inbounds nuw i8, ptr %4, i64 64
  %25 = zext nneg i32 %13 to i64
  %26 = getelementptr inbounds nuw [64 x i8], ptr %24, i64 0, i64 %25
  store i8 -128, ptr %26, align 1, !tbaa !14
  br label %27

27:                                               ; preds = %23, %15
  %28 = add nuw nsw i32 %13, 1
  %29 = icmp ugt i32 %12, 255
  br i1 %29, label %30, label %39

30:                                               ; preds = %27
  %31 = icmp ult i32 %12, 504
  br i1 %31, label %32, label %.thread.i

32:                                               ; preds = %30
  %33 = getelementptr inbounds nuw i8, ptr %4, i64 64
  %34 = zext nneg i32 %28 to i64
  %35 = getelementptr inbounds nuw [64 x i8], ptr %33, i64 0, i64 %34
  %36 = sub nuw nsw i32 63, %13
  %37 = zext nneg i32 %36 to i64
  call void @llvm.memset.p0.i64(ptr nonnull align 1 %35, i8 0, i64 %37, i1 false)
  br label %.thread.i

.thread.i:                                        ; preds = %32, %30
  %38 = getelementptr inbounds nuw i8, ptr %4, i64 64
  call void @whirlpool_block(ptr noundef nonnull %4, ptr noundef nonnull %38, i64 noundef 1) #6
  br label %41

39:                                               ; preds = %27
  %40 = icmp samesign ult i32 %12, 248
  br i1 %40, label %41, label %47

41:                                               ; preds = %39, %.thread.i
  %.04048.i = phi i32 [ 0, %.thread.i ], [ %28, %39 ]
  %42 = getelementptr inbounds nuw i8, ptr %4, i64 64
  %43 = zext nneg i32 %.04048.i to i64
  %44 = getelementptr inbounds nuw [64 x i8], ptr %42, i64 0, i64 %43
  %45 = sub nuw nsw i32 32, %.04048.i
  %46 = zext nneg i32 %45 to i64
  call void @llvm.memset.p0.i64(ptr nonnull align 1 %44, i8 0, i64 %46, i1 false)
  br label %47

47:                                               ; preds = %41, %39
  %48 = getelementptr inbounds nuw i8, ptr %4, i64 127
  %49 = getelementptr inbounds nuw i8, ptr %4, i64 136
  br label %50

50:                                               ; preds = %58, %47
  %.053.i = phi ptr [ %48, %47 ], [ %55, %58 ]
  %.03952.i = phi i64 [ 0, %47 ], [ %59, %58 ]
  %51 = getelementptr inbounds nuw [4 x i64], ptr %49, i64 0, i64 %.03952.i
  %52 = load i64, ptr %51, align 8, !tbaa !10
  br label %53

53:                                               ; preds = %53, %50
  %.151.i = phi ptr [ %.053.i, %50 ], [ %55, %53 ]
  %.03750.i = phi i64 [ %52, %50 ], [ %57, %53 ]
  %.03849.i = phi i64 [ 0, %50 ], [ %56, %53 ]
  %54 = trunc i64 %.03750.i to i8
  %55 = getelementptr inbounds i8, ptr %.151.i, i64 -1
  store i8 %54, ptr %.151.i, align 1, !tbaa !14
  %56 = add nuw nsw i64 %.03849.i, 1
  %57 = lshr i64 %.03750.i, 8
  %exitcond.not.i = icmp eq i64 %56, 8
  br i1 %exitcond.not.i, label %58, label %53, !llvm.loop !15

58:                                               ; preds = %53
  %59 = add nuw nsw i64 %.03952.i, 1
  %exitcond54.not.i = icmp eq i64 %59, 4
  br i1 %exitcond54.not.i, label %WHIRLPOOL_Final.exit, label %50, !llvm.loop !16

WHIRLPOOL_Final.exit:                             ; preds = %58
  %60 = icmp eq ptr %2, null
  %spec.store.select = select i1 %60, ptr @WHIRLPOOL.m, ptr %2
  %61 = getelementptr inbounds nuw i8, ptr %4, i64 64
  call void @whirlpool_block(ptr noundef nonnull %4, ptr noundef nonnull %61, i64 noundef 1) #6
  call void @llvm.memcpy.p0.p0.i64(ptr noundef nonnull align 1 dereferenceable(64) %spec.store.select, ptr noundef nonnull align 8 dereferenceable(64) %4, i64 64, i1 false)
  call void @OPENSSL_cleanse(ptr noundef nonnull %4, i64 noundef 168) #6
  call void @llvm.lifetime.end.p0(i64 168, ptr nonnull %4) #6
  ret ptr %spec.store.select
}